target datalayout = "e-m:e-p270:32:32-p271:32:32-p272:64:64-i64:64-i128:128-f80:128-n8:16:32:64-S128"
target triple = "x86_64-pc-linux-gnu"

@H5T_init_g = external global i8, align 1
@H5_libterm_g = external global i8, align 1
@.str = private unnamed_addr constant [100 x i8] c"generated/home/dtcxzyw/WorkSpace/Projects/compilers/llvm-opt-benchmark/bench/hdf5/hdf5/src/H5Tref.c\00", align 1
@H5E_ARGS_g = external global i64, align 8
@__func__.H5T__ref_disk_getsize = private unnamed_addr constant [22 x i8] c"H5T__ref_disk_getsize\00", align 1
@H5E_BADVALUE_g = external global i64, align 8
@.str.28 = private unnamed_addr constant [23 x i8] c"invalid reference type\00", align 1

; Function Attrs: nounwind uwtable
define internal i64 @H5T__ref_disk_getsize(ptr noundef %0, ptr noundef %1, i64 noundef %2, ptr noundef %3, ptr noundef %4) #0 {
  %6 = alloca ptr, align 8
  %7 = alloca ptr, align 8
  %8 = alloca i64, align 8
  %9 = alloca ptr, align 8
  %10 = alloca ptr, align 8
  %11 = alloca ptr, align 8
  %12 = alloca i32, align 4
  %13 = alloca i32, align 4
  %14 = alloca i64, align 8
  %15 = alloca i8, align 1
  store ptr %0, ptr %6, align 8, !tbaa !8
  store ptr %1, ptr %7, align 8, !tbaa !39
  store i64 %2, ptr %8, align 8, !tbaa !28
  store ptr %3, ptr %9, align 8, !tbaa !8
  store ptr %4, ptr %10, align 8, !tbaa !40
  call void @llvm.lifetime.start.p0(i64 8, ptr %11) #8
  %16 = load ptr, ptr %7, align 8, !tbaa !39
  store ptr %16, ptr %11, align 8, !tbaa !44
  call void @llvm.lifetime.start.p0(i64 4, ptr %12) #8
  call void @llvm.lifetime.start.p0(i64 4, ptr %13) #8
  call void @llvm.lifetime.start.p0(i64 8, ptr %14) #8
  store i64 0, ptr %14, align 8, !tbaa !28
  call void @llvm.lifetime.start.p0(i64 1, ptr %15) #8
  store i8 0, ptr %15, align 1, !tbaa !12
  %17 = load i8, ptr @H5T_init_g, align 1, !tbaa !12, !range !14, !noundef !15
  %18 = trunc i8 %17 to i1
  br i1 %18, label %23, label %19

19:                                               ; preds = %5
  %20 = load i8, ptr @H5_libterm_g, align 1, !tbaa !12, !range !14, !noundef !15
  %21 = trunc i8 %20 to i1
  %22 = xor i1 %21, true
  br label %23

23:                                               ; preds = %19, %5
  %24 = phi i1 [ true, %5 ], [ %22, %19 ]
  %25 = xor i1 %24, true
  %26 = xor i1 %25, true
  %27 = zext i1 %26 to i32
  %28 = sext i32 %27 to i64
  %29 = call i64 @llvm.expect.i64(i64 %28, i64 1)
  %30 = icmp ne i64 %29, 0
  br i1 %30, label %31, label %122

31:                                               ; preds = %23
  br label %32

32:                                               ; preds = %31
  br label %33

33:                                               ; preds = %32
  br label %34

34:                                               ; preds = %33
  %35 = load ptr, ptr %11, align 8, !tbaa !44
  %36 = getelementptr inbounds nuw i8, ptr %35, i32 1
  store ptr %36, ptr %11, align 8, !tbaa !44
  %37 = load i8, ptr %35, align 1, !tbaa !25
  %38 = zext i8 %37 to i32
  store i32 %38, ptr %13, align 4, !tbaa !10
  %39 = load i32, ptr %13, align 4, !tbaa !10
  %40 = icmp sle i32 %39, -1
  br i1 %40, label %44, label %41

41:                                               ; preds = %34
  %42 = load i32, ptr %13, align 4, !tbaa !10
  %43 = icmp sge i32 %42, 5
  br i1 %43, label %44, label %63

44:                                               ; preds = %41, %34
  br label %45

45:                                               ; preds = %44
  br label %46

46:                                               ; preds = %45
  br label %47

47:                                               ; preds = %46
  %48 = load i64, ptr @H5E_ARGS_g, align 8, !tbaa !28
  %49 = load i64, ptr @H5E_BADVALUE_g, align 8, !tbaa !28
  %50 = call i32 (ptr, ptr, i32, i64, i64, ptr, ...) @H5E_printf_stack(ptr noundef @.str, ptr noundef @__func__.H5T__ref_disk_getsize, i32 noundef 885, i64 noundef %48, i64 noundef %49, ptr noundef @.str.28)
  br label %51

51:                                               ; preds = %47
  br label %52

52:                                               ; preds = %51
  store i8 1, ptr %15, align 1, !tbaa !12
  %53 = load i8, ptr %15, align 1, !tbaa !12, !range !14, !noundef !15
  %54 = trunc i8 %53 to i1
  %55 = zext i1 %54 to i8
  store i8 %55, ptr %15, align 1, !tbaa !12
  br label %56

56:                                               ; preds = %52
  br label %57

57:                                               ; preds = %56
  br label %58

58:                                               ; preds = %57
  store i64 0, ptr %14, align 8, !tbaa !28
  br label %121

59:                                               ; No predecessors!
  br label %60

60:                                               ; preds = %59
  br label %61

61:                                               ; preds = %60
  br label %62

62:                                               ; preds = %61
  br label %63

63:                                               ; preds = %62, %41
  %64 = load ptr, ptr %11, align 8, !tbaa !44
  %65 = getelementptr inbounds nuw i8, ptr %64, i32 1
  store ptr %65, ptr %11, align 8, !tbaa !44
  %66 = load i8, ptr %64, align 1, !tbaa !25
  %67 = zext i8 %66 to i32
  store i32 %67, ptr %12, align 4, !tbaa !10
  %68 = load i32, ptr %12, align 4, !tbaa !10
  %69 = and i32 %68, 1
  %70 = icmp ne i32 %69, 0
  br i1 %70, label %77, label %71

71:                                               ; preds = %63
  %72 = load i32, ptr %13, align 4, !tbaa !10
  %73 = icmp eq i32 %72, 2
  br i1 %73, label %74, label %77

74:                                               ; preds = %71
  %75 = load ptr, ptr %10, align 8, !tbaa !40
  store i8 1, ptr %75, align 1, !tbaa !12
  %76 = load i64, ptr %8, align 8, !tbaa !28
  store i64 %76, ptr %14, align 8, !tbaa !28
  br label %120

77:                                               ; preds = %71, %63
  br label %78

78:                                               ; preds = %77
  %79 = load ptr, ptr %11, align 8, !tbaa !44
  %80 = load i8, ptr %79, align 1, !tbaa !25
  %81 = zext i8 %80 to i32
  %82 = and i32 %81, 255
  %83 = zext i32 %82 to i64
  store i64 %83, ptr %14, align 8, !tbaa !28
  %84 = load ptr, ptr %11, align 8, !tbaa !44
  %85 = getelementptr inbounds nuw i8, ptr %84, i32 1
  store ptr %85, ptr %11, align 8, !tbaa !44
  %86 = load ptr, ptr %11, align 8, !tbaa !44
  %87 = load i8, ptr %86, align 1, !tbaa !25
  %88 = zext i8 %87 to i32
  %89 = and i32 %88, 255
  %90 = shl i32 %89, 8
  %91 = zext i32 %90 to i64
  %92 = load i64, ptr %14, align 8, !tbaa !28
  %93 = or i64 %92, %91
  store i64 %93, ptr %14, align 8, !tbaa !28
  %94 = load ptr, ptr %11, align 8, !tbaa !44
  %95 = getelementptr inbounds nuw i8, ptr %94, i32 1
  store ptr %95, ptr %11, align 8, !tbaa !44
  %96 = load ptr, ptr %11, align 8, !tbaa !44
  %97 = load i8, ptr %96, align 1, !tbaa !25
  %98 = zext i8 %97 to i32
  %99 = and i32 %98, 255
  %100 = shl i32 %99, 16
  %101 = zext i32 %100 to i64
  %102 = load i64, ptr %14, align 8, !tbaa !28
  %103 = or i64 %102, %101
  store i64 %103, ptr %14, align 8, !tbaa !28
  %104 = load ptr, ptr %11, align 8, !tbaa !44
  %105 = getelementptr inbounds nuw i8, ptr %104, i32 1
  store ptr %105, ptr %11, align 8, !tbaa !44
  %106 = load ptr, ptr %11, align 8, !tbaa !44
  %107 = load i8, ptr %106, align 1, !tbaa !25
  %108 = zext i8 %107 to i32
  %109 = and i32 %108, 255
  %110 = shl i32 %109, 24
  %111 = zext i32 %110 to i64
  %112 = load i64, ptr %14, align 8, !tbaa !28
  %113 = or i64 %112, %111
  store i64 %113, ptr %14, align 8, !tbaa !28
  %114 = load ptr, ptr %11, align 8, !tbaa !44
  %115 = getelementptr inbounds nuw i8, ptr %114, i32 1
  store ptr %115, ptr %11, align 8, !tbaa !44
  br label %116

116:                                              ; preds = %78
  br label %117

117:                                              ; preds = %116
  %118 = load i64, ptr %14, align 8, !tbaa !28
  %119 = add i64 %118, 2
  store i64 %119, ptr %14, align 8, !tbaa !28
  br label %120

120:                                              ; preds = %117, %74
  br label %121

121:                                              ; preds = %120, %58
  br label %122

122:                                              ; preds = %121, %23
  %123 = load i64, ptr %14, align 8, !tbaa !28
  call void @llvm.lifetime.end.p0(i64 1, ptr %15) #8
  call void @llvm.lifetime.end.p0(i64 8, ptr %14) #8
  call void @llvm.lifetime.end.p0(i64 4, ptr %13) #8
  call void @llvm.lifetime.end.p0(i64 4, ptr %12) #8
  call void @llvm.lifetime.end.p0(i64 8, ptr %11) #8
  ret i64 %123
}