; Function Attrs: nounwind uwtable
define internal i64 @H5T__ref_disk_getsize(ptr readnone captures(none) %0, ptr noundef readonly captures(none) %1, i64 noundef %2, ptr readnone captures(none) %3, ptr noundef writeonly captures(none) %4) #0 {
  %6 = load i8, ptr @H5T_init_g, align 1, !tbaa !3, !range !7, !noundef !8
  %7 = trunc nuw i8 %6 to i1
  %8 = load i8, ptr @H5_libterm_g, align 1, !range !7
  %9 = trunc nuw i8 %8 to i1
  %10 = xor i1 %9, true
  %11 = select i1 %7, i1 true, i1 %10
  br i1 %11, label %12, label %31, !prof !9

12:                                               ; preds = %5
  %13 = load i8, ptr %1, align 1, !tbaa !22
  %14 = icmp ugt i8 %13, 4
  br i1 %14, label %15, label %19

15:                                               ; preds = %12
  %16 = load i64, ptr @H5E_ARGS_g, align 8, !tbaa !26
  %17 = load i64, ptr @H5E_BADVALUE_g, align 8, !tbaa !26
  %18 = tail call i32 (ptr, ptr, i32, i64, i64, ptr, ...) @H5E_printf_stack(ptr noundef nonnull @.str, ptr noundef nonnull @__func__.H5T__ref_disk_getsize, i32 noundef 885, i64 noundef %16, i64 noundef %17, ptr noundef nonnull @.str.28) #11
  br label %31

19:                                               ; preds = %12
  %20 = getelementptr inbounds nuw i8, ptr %1, i64 1
  %21 = load i8, ptr %20, align 1, !tbaa !22
  %22 = and i8 %21, 1
  %23 = icmp eq i8 %22, 0
  %24 = icmp eq i8 %13, 2
  %or.cond3 = and i1 %24, %23
  br i1 %or.cond3, label %25, label %26

25:                                               ; preds = %19
  store i8 1, ptr %4, align 1, !tbaa !3
  br label %31

26:                                               ; preds = %19
  %27 = getelementptr inbounds nuw i8, ptr %1, i64 2
  %28 = load i32, ptr %27, align 1
  %29 = zext i32 %28 to i64
  %30 = add nuw nsw i64 %29, 2
  br label %31

31:                                               ; preds = %15, %26, %25, %5
  %.0 = phi i64 [ 0, %15 ], [ %2, %25 ], [ %30, %26 ], [ 0, %5 ]
  ret i64 %.0
}